; ModuleID = 'probe1.87d3a5b4d43594fb-cgu.0'
source_filename = "probe1.87d3a5b4d43594fb-cgu.0"
target datalayout = "e-m:e-p270:32:32-p271:32:32-p272:64:64-i64:64-f80:128-n8:16:32:64-S128"
target triple = "x86_64-unknown-linux-gnu"

%"core::fmt::Arguments<'_>" = type { { ptr, i64 }, { ptr, i64 }, { ptr, i64 } }
%"alloc::string::String" = type { %"alloc::vec::Vec<u8>" }
%"alloc::vec::Vec<u8>" = type { { ptr, i64 }, i64 }
%"core::ptr::metadata::PtrRepr<[u8]>" = type { [2 x i64] }
%"alloc::alloc::Global" = type {}
%"core::option::Option<(core::ptr::non_null::NonNull<u8>, core::alloc::layout::Layout)>" = type { [1 x i64], i64, [1 x i64] }

@alloc_91c7fa63c3cfeaa3c795652d5cf060e4 = private unnamed_addr constant <{ [12 x i8] }> <{ [12 x i8] c"invalid args" }>, align 1
@alloc_560206a49c61adca6f3f0639a12632eb = private unnamed_addr constant <{ ptr, [8 x i8] }> <{ ptr @alloc_91c7fa63c3cfeaa3c795652d5cf060e4, [8 x i8] c"\0C\00\00\00\00\00\00\00" }>, align 8
@alloc_513570631223a12912d85da2bec3b15a = private unnamed_addr constant <{}> zeroinitializer, align 8
@alloc_1f91cb0a4bb72a264ecb150b0750f81f = private unnamed_addr constant <{ [75 x i8] }> <{ [75 x i8] c"/rustc/79e9716c980570bfd1f666e3b16ac583f0168962/library/core/src/fmt/mod.rs" }>, align 1
@alloc_bb07cd24bb2145d654bb0fbdf9ee9463 = private unnamed_addr constant <{ ptr, [16 x i8] }> <{ ptr @alloc_1f91cb0a4bb72a264ecb150b0750f81f, [16 x i8] c"K\00\00\00\00\00\00\00I\01\00\00\0D\00\00\00" }>, align 8
@alloc_285d2c875288d2f4426e12897301dd64 = private unnamed_addr constant <{ [80 x i8] }> <{ [80 x i8] c"/rustc/79e9716c980570bfd1f666e3b16ac583f0168962/library/core/src/alloc/layout.rs" }>, align 1
@alloc_e3ef41329f88c90ba3a10630aa3c2cf9 = private unnamed_addr constant <{ ptr, [16 x i8] }> <{ ptr @alloc_285d2c875288d2f4426e12897301dd64, [16 x i8] c"P\00\00\00\00\00\00\00\BF\01\00\00)\00\00\00" }>, align 8
@str.0 = internal constant [25 x i8] c"attempt to divide by zero"
@__rust_no_alloc_shim_is_unstable = external global i8
@alloc_ffa3cdb3ae88e54a1cc225f31dd07672 = private unnamed_addr constant <{ ptr, [8 x i8] }> <{ ptr @alloc_513570631223a12912d85da2bec3b15a, [8 x i8] zeroinitializer }>, align 8
@alloc_53973d2fe29b4adba8bb7390b5678745 = private unnamed_addr constant <{ [8 x i8] }> zeroinitializer, align 8

; core::fmt::Arguments::new_v1
; Function Attrs: inlinehint nonlazybind uwtable
define internal void @_ZN4core3fmt9Arguments6new_v117hd76b95d684fe09c0E(ptr sret(%"core::fmt::Arguments<'_>") align 8 %_0, ptr align 8 %pieces.0, i64 %pieces.1, ptr align 8 %args.0, i64 %args.1) unnamed_addr #0 {
start:
  %_15 = alloca { ptr, i64 }, align 8
  %_13 = alloca { ptr, i64 }, align 8
  %_11 = alloca %"core::fmt::Arguments<'_>", align 8
  %_3 = icmp ult i64 %pieces.1, %args.1
  br i1 %_3, label %bb1, label %bb2

bb2:                                              ; preds = %start
  %_8 = add i64 %args.1, 1
  %_6 = icmp ugt i64 %pieces.1, %_8
  br i1 %_6, label %bb3, label %bb4

bb1:                                              ; preds = %start
  br label %bb3

bb4:                                              ; preds = %bb2
  store ptr null, ptr %_13, align 8
  %0 = getelementptr inbounds { ptr, i64 }, ptr %_0, i32 0, i32 0
  store ptr %pieces.0, ptr %0, align 8
  %1 = getelementptr inbounds { ptr, i64 }, ptr %_0, i32 0, i32 1
  store i64 %pieces.1, ptr %1, align 8
  %2 = getelementptr inbounds { ptr, i64 }, ptr %_13, i32 0, i32 0
  %3 = load ptr, ptr %2, align 8, !align !3, !noundef !4
  %4 = getelementptr inbounds { ptr, i64 }, ptr %_13, i32 0, i32 1
  %5 = load i64, ptr %4, align 8
  %6 = getelementptr inbounds %"core::fmt::Arguments<'_>", ptr %_0, i32 0, i32 2
  %7 = getelementptr inbounds { ptr, i64 }, ptr %6, i32 0, i32 0
  store ptr %3, ptr %7, align 8
  %8 = getelementptr inbounds { ptr, i64 }, ptr %6, i32 0, i32 1
  store i64 %5, ptr %8, align 8
  %9 = getelementptr inbounds %"core::fmt::Arguments<'_>", ptr %_0, i32 0, i32 1
  %10 = getelementptr inbounds { ptr, i64 }, ptr %9, i32 0, i32 0
  store ptr %args.0, ptr %10, align 8
  %11 = getelementptr inbounds { ptr, i64 }, ptr %9, i32 0, i32 1
  store i64 %args.1, ptr %11, align 8
  ret void

bb3:                                              ; preds = %bb1, %bb2
  store ptr null, ptr %_15, align 8
  %12 = getelementptr inbounds { ptr, i64 }, ptr %_11, i32 0, i32 0
  store ptr @alloc_560206a49c61adca6f3f0639a12632eb, ptr %12, align 8
  %13 = getelementptr inbounds { ptr, i64 }, ptr %_11, i32 0, i32 1
  store i64 1, ptr %13, align 8
  %14 = getelementptr inbounds { ptr, i64 }, ptr %_15, i32 0, i32 0
  %15 = load ptr, ptr %14, align 8, !align !3, !noundef !4
  %16 = getelementptr inbounds { ptr, i64 }, ptr %_15, i32 0, i32 1
  %17 = load i64, ptr %16, align 8
  %18 = getelementptr inbounds %"core::fmt::Arguments<'_>", ptr %_11, i32 0, i32 2
  %19 = getelementptr inbounds { ptr, i64 }, ptr %18, i32 0, i32 0
  store ptr %15, ptr %19, align 8
  %20 = getelementptr inbounds { ptr, i64 }, ptr %18, i32 0, i32 1
  store i64 %17, ptr %20, align 8
  %21 = getelementptr inbounds %"core::fmt::Arguments<'_>", ptr %_11, i32 0, i32 1
  %22 = getelementptr inbounds { ptr, i64 }, ptr %21, i32 0, i32 0
  store ptr @alloc_513570631223a12912d85da2bec3b15a, ptr %22, align 8
  %23 = getelementptr inbounds { ptr, i64 }, ptr %21, i32 0, i32 1
  store i64 0, ptr %23, align 8
; call core::panicking::panic_fmt
  call void @_ZN4core9panicking9panic_fmt17h979245e2fdb2fabdE(ptr align 8 %_11, ptr align 8 @alloc_bb07cd24bb2145d654bb0fbdf9ee9463) #12
  unreachable
}

; core::ops::function::FnOnce::call_once
; Function Attrs: inlinehint nonlazybind uwtable
define internal void @_ZN4core3ops8function6FnOnce9call_once17hfe96ba7c1f26ace3E(ptr sret(%"alloc::string::String") align 8 %_0, ptr align 1 %0, i64 %1) unnamed_addr #0 {
start:
  %_2 = alloca { ptr, i64 }, align 8
  %2 = getelementptr inbounds { ptr, i64 }, ptr %_2, i32 0, i32 0
  store ptr %0, ptr %2, align 8
  %3 = getelementptr inbounds { ptr, i64 }, ptr %_2, i32 0, i32 1
  store i64 %1, ptr %3, align 8
  %4 = getelementptr inbounds { ptr, i64 }, ptr %_2, i32 0, i32 0
  %5 = load ptr, ptr %4, align 8, !nonnull !4, !align !5, !noundef !4
  %6 = getelementptr inbounds { ptr, i64 }, ptr %_2, i32 0, i32 1
  %7 = load i64, ptr %6, align 8, !noundef !4
; call alloc::str::<impl alloc::borrow::ToOwned for str>::to_owned
  call void @"_ZN5alloc3str56_$LT$impl$u20$alloc..borrow..ToOwned$u20$for$u20$str$GT$8to_owned17h92fd2d85ae68b4eaE"(ptr sret(%"alloc::string::String") align 8 %_0, ptr align 1 %5, i64 %7)
  ret void
}

; core::ptr::drop_in_place<alloc::string::String>
; Function Attrs: nonlazybind uwtable
define void @"_ZN4core3ptr42drop_in_place$LT$alloc..string..String$GT$17he9127a551b21c677E"(ptr align 8 %_1) unnamed_addr #1 {
start:
; call core::ptr::drop_in_place<alloc::vec::Vec<u8>>
  call void @"_ZN4core3ptr46drop_in_place$LT$alloc..vec..Vec$LT$u8$GT$$GT$17h565ac2cbd61d1e1bE"(ptr align 8 %_1)
  ret void
}

; core::ptr::drop_in_place<alloc::vec::Vec<u8>>
; Function Attrs: nonlazybind uwtable
define void @"_ZN4core3ptr46drop_in_place$LT$alloc..vec..Vec$LT$u8$GT$$GT$17h565ac2cbd61d1e1bE"(ptr align 8 %_1) unnamed_addr #1 personality ptr @rust_eh_personality {
start:
  %0 = alloca { ptr, i32 }, align 8
; invoke <alloc::vec::Vec<T,A> as core::ops::drop::Drop>::drop
  invoke void @"_ZN70_$LT$alloc..vec..Vec$LT$T$C$A$GT$$u20$as$u20$core..ops..drop..Drop$GT$4drop17hd696aece270f9d4cE"(ptr align 8 %_1)
          to label %bb4 unwind label %cleanup

bb3:                                              ; preds = %cleanup
; invoke core::ptr::drop_in_place<alloc::raw_vec::RawVec<u8>>
  invoke void @"_ZN4core3ptr53drop_in_place$LT$alloc..raw_vec..RawVec$LT$u8$GT$$GT$17ha41eaaa0ad6328eaE"(ptr align 8 %_1) #13
          to label %bb1 unwind label %terminate

cleanup:                                          ; preds = %start
  %1 = landingpad { ptr, i32 }
          cleanup
  %2 = extractvalue { ptr, i32 } %1, 0
  %3 = extractvalue { ptr, i32 } %1, 1
  %4 = getelementptr inbounds { ptr, i32 }, ptr %0, i32 0, i32 0
  store ptr %2, ptr %4, align 8
  %5 = getelementptr inbounds { ptr, i32 }, ptr %0, i32 0, i32 1
  store i32 %3, ptr %5, align 8
  br label %bb3

bb4:                                              ; preds = %start
; call core::ptr::drop_in_place<alloc::raw_vec::RawVec<u8>>
  call void @"_ZN4core3ptr53drop_in_place$LT$alloc..raw_vec..RawVec$LT$u8$GT$$GT$17ha41eaaa0ad6328eaE"(ptr align 8 %_1)
  ret void

terminate:                                        ; preds = %bb3
  %6 = landingpad { ptr, i32 }
          filter [0 x ptr] zeroinitializer
  %7 = extractvalue { ptr, i32 } %6, 0
  %8 = extractvalue { ptr, i32 } %6, 1
; call core::panicking::panic_in_cleanup
  call void @_ZN4core9panicking16panic_in_cleanup17haea3eecf6d735b6cE() #14
  unreachable

bb1:                                              ; preds = %bb3
  %9 = load ptr, ptr %0, align 8, !noundef !4
  %10 = getelementptr inbounds { ptr, i32 }, ptr %0, i32 0, i32 1
  %11 = load i32, ptr %10, align 8, !noundef !4
  %12 = insertvalue { ptr, i32 } poison, ptr %9, 0
  %13 = insertvalue { ptr, i32 } %12, i32 %11, 1
  resume { ptr, i32 } %13
}

; core::ptr::drop_in_place<alloc::raw_vec::RawVec<u8>>
; Function Attrs: nonlazybind uwtable
define void @"_ZN4core3ptr53drop_in_place$LT$alloc..raw_vec..RawVec$LT$u8$GT$$GT$17ha41eaaa0ad6328eaE"(ptr align 8 %_1) unnamed_addr #1 {
start:
; call <alloc::raw_vec::RawVec<T,A> as core::ops::drop::Drop>::drop
  call void @"_ZN77_$LT$alloc..raw_vec..RawVec$LT$T$C$A$GT$$u20$as$u20$core..ops..drop..Drop$GT$4drop17h3450741bf8722242E"(ptr align 8 %_1)
  ret void
}

; core::alloc::layout::Layout::array::inner
; Function Attrs: inlinehint nonlazybind uwtable
define internal { i64, i64 } @_ZN4core5alloc6layout6Layout5array5inner17h40804fcbee866092E(i64 %element_size, i64 %align, i64 %n) unnamed_addr #0 {
start:
  %_18 = alloca i64, align 8
  %_13 = alloca i64, align 8
  %_9 = alloca { i64, i64 }, align 8
  %_0 = alloca { i64, i64 }, align 8
  %0 = icmp eq i64 %element_size, 0
  br i1 %0, label %bb5, label %bb1

bb5:                                              ; preds = %bb4, %start
  %array_size = mul i64 %element_size, %n
  store i64 %align, ptr %_18, align 8
  %_19 = load i64, ptr %_18, align 8, !range !6, !noundef !4
  %_20 = icmp uge i64 %_19, 1
  %_21 = icmp ule i64 %_19, -9223372036854775808
  %_22 = and i1 %_20, %_21
  call void @llvm.assume(i1 %_22)
  %1 = getelementptr inbounds { i64, i64 }, ptr %_9, i32 0, i32 1
  store i64 %array_size, ptr %1, align 8
  store i64 %_19, ptr %_9, align 8
  %2 = getelementptr inbounds { i64, i64 }, ptr %_9, i32 0, i32 0
  %3 = load i64, ptr %2, align 8, !range !6, !noundef !4
  %4 = getelementptr inbounds { i64, i64 }, ptr %_9, i32 0, i32 1
  %5 = load i64, ptr %4, align 8, !noundef !4
  %6 = getelementptr inbounds { i64, i64 }, ptr %_0, i32 0, i32 0
  store i64 %3, ptr %6, align 8
  %7 = getelementptr inbounds { i64, i64 }, ptr %_0, i32 0, i32 1
  store i64 %5, ptr %7, align 8
  br label %bb6

bb1:                                              ; preds = %start
  store i64 %align, ptr %_13, align 8
  %_14 = load i64, ptr %_13, align 8, !range !6, !noundef !4
  %_15 = icmp uge i64 %_14, 1
  %_16 = icmp ule i64 %_14, -9223372036854775808
  %_17 = and i1 %_15, %_16
  call void @llvm.assume(i1 %_17)
  %_11 = sub i64 %_14, 1
  %_6 = sub i64 9223372036854775807, %_11
  %_7 = icmp eq i64 %element_size, 0
  %8 = call i1 @llvm.expect.i1(i1 %_7, i1 false)
  br i1 %8, label %panic, label %bb2

bb2:                                              ; preds = %bb1
  %_5 = udiv i64 %_6, %element_size
  %_4 = icmp ugt i64 %n, %_5
  br i1 %_4, label %bb3, label %bb4

panic:                                            ; preds = %bb1
; call core::panicking::panic
  call void @_ZN4core9panicking5panic17hcad0f3a89a1b36aaE(ptr align 1 @str.0, i64 25, ptr align 8 @alloc_e3ef41329f88c90ba3a10630aa3c2cf9) #12
  unreachable

bb4:                                              ; preds = %bb2
  br label %bb5

bb3:                                              ; preds = %bb2
  store i64 0, ptr %_0, align 8
  br label %bb6

bb6:                                              ; preds = %bb3, %bb5
  %9 = getelementptr inbounds { i64, i64 }, ptr %_0, i32 0, i32 0
  %10 = load i64, ptr %9, align 8, !range !7, !noundef !4
  %11 = getelementptr inbounds { i64, i64 }, ptr %_0, i32 0, i32 1
  %12 = load i64, ptr %11, align 8
  %13 = insertvalue { i64, i64 } poison, i64 %10, 0
  %14 = insertvalue { i64, i64 } %13, i64 %12, 1
  ret { i64, i64 } %14
}

; core::option::Option<T>::map_or_else
; Function Attrs: inlinehint nonlazybind uwtable
define void @"_ZN4core6option15Option$LT$T$GT$11map_or_else17h00dcaa1c5a85f0cdE"(ptr sret(%"alloc::string::String") align 8 %_0, ptr align 1 %0, i64 %1, ptr align 8 %default) unnamed_addr #0 personality ptr @rust_eh_personality {
start:
  %2 = alloca { ptr, i32 }, align 8
  %_10 = alloca i8, align 1
  %_9 = alloca i8, align 1
  %_7 = alloca { ptr, i64 }, align 8
  %self = alloca { ptr, i64 }, align 8
  %3 = getelementptr inbounds { ptr, i64 }, ptr %self, i32 0, i32 0
  store ptr %0, ptr %3, align 8
  %4 = getelementptr inbounds { ptr, i64 }, ptr %self, i32 0, i32 1
  store i64 %1, ptr %4, align 8
  store i8 1, ptr %_10, align 1
  store i8 1, ptr %_9, align 1
  %5 = load ptr, ptr %self, align 8, !noundef !4
  %6 = ptrtoint ptr %5 to i64
  %7 = icmp eq i64 %6, 0
  %_4 = select i1 %7, i64 0, i64 1
  %8 = icmp eq i64 %_4, 0
  br i1 %8, label %bb1, label %bb3

bb1:                                              ; preds = %start
  store i8 0, ptr %_10, align 1
; invoke alloc::fmt::format::{{closure}}
  invoke void @"_ZN5alloc3fmt6format28_$u7b$$u7b$closure$u7d$$u7d$17h552a12c73d5a1ac6E"(ptr sret(%"alloc::string::String") align 8 %_0, ptr align 8 %default)
          to label %bb5 unwind label %cleanup

bb3:                                              ; preds = %start
  %9 = getelementptr inbounds { ptr, i64 }, ptr %self, i32 0, i32 0
  %t.0 = load ptr, ptr %9, align 8, !nonnull !4, !align !5, !noundef !4
  %10 = getelementptr inbounds { ptr, i64 }, ptr %self, i32 0, i32 1
  %t.1 = load i64, ptr %10, align 8, !noundef !4
  store i8 0, ptr %_9, align 1
  %11 = getelementptr inbounds { ptr, i64 }, ptr %_7, i32 0, i32 0
  store ptr %t.0, ptr %11, align 8
  %12 = getelementptr inbounds { ptr, i64 }, ptr %_7, i32 0, i32 1
  store i64 %t.1, ptr %12, align 8
  %13 = getelementptr inbounds { ptr, i64 }, ptr %_7, i32 0, i32 0
  %14 = load ptr, ptr %13, align 8, !nonnull !4, !align !5, !noundef !4
  %15 = getelementptr inbounds { ptr, i64 }, ptr %_7, i32 0, i32 1
  %16 = load i64, ptr %15, align 8, !noundef !4
; invoke core::ops::function::FnOnce::call_once
  invoke void @_ZN4core3ops8function6FnOnce9call_once17hfe96ba7c1f26ace3E(ptr sret(%"alloc::string::String") align 8 %_0, ptr align 1 %14, i64 %16)
          to label %bb4 unwind label %cleanup

bb14:                                             ; preds = %cleanup
  %17 = load i8, ptr %_9, align 1, !range !8, !noundef !4
  %18 = trunc i8 %17 to i1
  br i1 %18, label %bb13, label %bb8

cleanup:                                          ; preds = %bb3, %bb1
  %19 = landingpad { ptr, i32 }
          cleanup
  %20 = extractvalue { ptr, i32 } %19, 0
  %21 = extractvalue { ptr, i32 } %19, 1
  %22 = getelementptr inbounds { ptr, i32 }, ptr %2, i32 0, i32 0
  store ptr %20, ptr %22, align 8
  %23 = getelementptr inbounds { ptr, i32 }, ptr %2, i32 0, i32 1
  store i32 %21, ptr %23, align 8
  br label %bb14

bb5:                                              ; preds = %bb1
  br label %bb11

bb11:                                             ; preds = %bb4, %bb5
  %24 = load i8, ptr %_9, align 1, !range !8, !noundef !4
  %25 = trunc i8 %24 to i1
  br i1 %25, label %bb10, label %bb6

bb4:                                              ; preds = %bb3
  br label %bb11

bb6:                                              ; preds = %bb10, %bb11
  %26 = load i8, ptr %_10, align 1, !range !8, !noundef !4
  %27 = trunc i8 %26 to i1
  br i1 %27, label %bb12, label %bb7

bb10:                                             ; preds = %bb11
  br label %bb6

bb7:                                              ; preds = %bb12, %bb6
  ret void

bb12:                                             ; preds = %bb6
  br label %bb7

bb8:                                              ; preds = %bb13, %bb14
  %28 = load i8, ptr %_10, align 1, !range !8, !noundef !4
  %29 = trunc i8 %28 to i1
  br i1 %29, label %bb15, label %bb9

bb13:                                             ; preds = %bb14
  br label %bb8

bb9:                                              ; preds = %bb15, %bb8
  %30 = load ptr, ptr %2, align 8, !noundef !4
  %31 = getelementptr inbounds { ptr, i32 }, ptr %2, i32 0, i32 1
  %32 = load i32, ptr %31, align 8, !noundef !4
  %33 = insertvalue { ptr, i32 } poison, ptr %30, 0
  %34 = insertvalue { ptr, i32 } %33, i32 %32, 1
  resume { ptr, i32 } %34

bb15:                                             ; preds = %bb8
  br label %bb9

bb2:                                              ; No predecessors!
  unreachable
}

; <T as alloc::slice::hack::ConvertVec>::to_vec
; Function Attrs: inlinehint nonlazybind uwtable
define void @"_ZN52_$LT$T$u20$as$u20$alloc..slice..hack..ConvertVec$GT$6to_vec17h77ddc8934d61b480E"(ptr sret(%"alloc::vec::Vec<u8>") align 8 %_0, ptr align 1 %s.0, i64 %s.1) unnamed_addr #0 personality ptr @rust_eh_personality {
start:
  %0 = alloca { ptr, i32 }, align 8
  %v = alloca %"alloc::vec::Vec<u8>", align 8
; invoke alloc::raw_vec::RawVec<T,A>::allocate_in
  %1 = invoke { ptr, i64 } @"_ZN5alloc7raw_vec19RawVec$LT$T$C$A$GT$11allocate_in17h7be12a5e81c5da33E"(i64 %s.1, i1 zeroext false)
          to label %bb4 unwind label %cleanup

bb3:                                              ; preds = %cleanup
  br i1 false, label %bb2, label %bb1

cleanup:                                          ; preds = %start
  %2 = landingpad { ptr, i32 }
          cleanup
  %3 = extractvalue { ptr, i32 } %2, 0
  %4 = extractvalue { ptr, i32 } %2, 1
  %5 = getelementptr inbounds { ptr, i32 }, ptr %0, i32 0, i32 0
  store ptr %3, ptr %5, align 8
  %6 = getelementptr inbounds { ptr, i32 }, ptr %0, i32 0, i32 1
  store i32 %4, ptr %6, align 8
  br label %bb3

bb4:                                              ; preds = %start
  %_13.0 = extractvalue { ptr, i64 } %1, 0
  %_13.1 = extractvalue { ptr, i64 } %1, 1
  %7 = getelementptr inbounds { ptr, i64 }, ptr %v, i32 0, i32 0
  store ptr %_13.0, ptr %7, align 8
  %8 = getelementptr inbounds { ptr, i64 }, ptr %v, i32 0, i32 1
  store i64 %_13.1, ptr %8, align 8
  %9 = getelementptr inbounds %"alloc::vec::Vec<u8>", ptr %v, i32 0, i32 1
  store i64 0, ptr %9, align 8
  %self = load ptr, ptr %v, align 8, !nonnull !4, !noundef !4
  %10 = mul i64 %s.1, 1
  call void @llvm.memcpy.p0.p0.i64(ptr align 1 %self, ptr align 1 %s.0, i64 %10, i1 false)
  %11 = getelementptr inbounds %"alloc::vec::Vec<u8>", ptr %v, i32 0, i32 1
  store i64 %s.1, ptr %11, align 8
  call void @llvm.memcpy.p0.p0.i64(ptr align 8 %_0, ptr align 8 %v, i64 24, i1 false)
  ret void

bb1:                                              ; preds = %bb2, %bb3
  %12 = load ptr, ptr %0, align 8, !noundef !4
  %13 = getelementptr inbounds { ptr, i32 }, ptr %0, i32 0, i32 1
  %14 = load i32, ptr %13, align 8, !noundef !4
  %15 = insertvalue { ptr, i32 } poison, ptr %12, 0
  %16 = insertvalue { ptr, i32 } %15, i32 %14, 1
  resume { ptr, i32 } %16

bb2:                                              ; preds = %bb3
  br label %bb1
}

; alloc::fmt::format
; Function Attrs: inlinehint nonlazybind uwtable
define internal void @_ZN5alloc3fmt6format17h8c88fd4503c997edE(ptr sret(%"alloc::string::String") align 8 %_0, ptr align 8 %args) unnamed_addr #0 {
start:
  %_4 = alloca ptr, align 8
  %_2 = alloca { ptr, i64 }, align 8
  %0 = getelementptr inbounds { ptr, i64 }, ptr %args, i32 0, i32 0
  %_6.0 = load ptr, ptr %0, align 8, !nonnull !4, !align !3, !noundef !4
  %1 = getelementptr inbounds { ptr, i64 }, ptr %args, i32 0, i32 1
  %_6.1 = load i64, ptr %1, align 8, !noundef !4
  %2 = getelementptr inbounds %"core::fmt::Arguments<'_>", ptr %args, i32 0, i32 1
  %3 = getelementptr inbounds { ptr, i64 }, ptr %2, i32 0, i32 0
  %_7.0 = load ptr, ptr %3, align 8, !nonnull !4, !align !3, !noundef !4
  %4 = getelementptr inbounds { ptr, i64 }, ptr %2, i32 0, i32 1
  %_7.1 = load i64, ptr %4, align 8, !noundef !4
  %5 = icmp eq i64 %_6.1, 0
  br i1 %5, label %bb3, label %bb5

bb3:                                              ; preds = %start
  %6 = icmp eq i64 %_7.1, 0
  br i1 %6, label %bb7, label %bb4

bb5:                                              ; preds = %start
  %7 = icmp eq i64 %_6.1, 1
  br i1 %7, label %bb6, label %bb4

bb7:                                              ; preds = %bb3
  %8 = getelementptr inbounds { ptr, i64 }, ptr %_2, i32 0, i32 0
  store ptr @alloc_513570631223a12912d85da2bec3b15a, ptr %8, align 8
  %9 = getelementptr inbounds { ptr, i64 }, ptr %_2, i32 0, i32 1
  store i64 0, ptr %9, align 8
  br label %bb1

bb4:                                              ; preds = %bb6, %bb5, %bb3
  store ptr null, ptr %_2, align 8
  br label %bb1

bb1:                                              ; preds = %bb4, %bb8, %bb7
  store ptr %args, ptr %_4, align 8
  %10 = getelementptr inbounds { ptr, i64 }, ptr %_2, i32 0, i32 0
  %11 = load ptr, ptr %10, align 8, !align !5, !noundef !4
  %12 = getelementptr inbounds { ptr, i64 }, ptr %_2, i32 0, i32 1
  %13 = load i64, ptr %12, align 8
  %14 = load ptr, ptr %_4, align 8, !nonnull !4, !align !3, !noundef !4
; call core::option::Option<T>::map_or_else
  call void @"_ZN4core6option15Option$LT$T$GT$11map_or_else17h00dcaa1c5a85f0cdE"(ptr sret(%"alloc::string::String") align 8 %_0, ptr align 1 %11, i64 %13, ptr align 8 %14)
  ret void

bb6:                                              ; preds = %bb5
  %15 = icmp eq i64 %_7.1, 0
  br i1 %15, label %bb8, label %bb4

bb8:                                              ; preds = %bb6
  %16 = getelementptr inbounds [0 x { ptr, i64 }], ptr %_6.0, i64 0, i64 0
  %17 = getelementptr inbounds { ptr, i64 }, ptr %16, i32 0, i32 0
  %_14.0 = load ptr, ptr %17, align 8, !nonnull !4, !align !5, !noundef !4
  %18 = getelementptr inbounds { ptr, i64 }, ptr %16, i32 0, i32 1
  %_14.1 = load i64, ptr %18, align 8, !noundef !4
  %19 = getelementptr inbounds { ptr, i64 }, ptr %_2, i32 0, i32 0
  store ptr %_14.0, ptr %19, align 8
  %20 = getelementptr inbounds { ptr, i64 }, ptr %_2, i32 0, i32 1
  store i64 %_14.1, ptr %20, align 8
  br label %bb1
}

; alloc::fmt::format::{{closure}}
; Function Attrs: inlinehint nonlazybind uwtable
define void @"_ZN5alloc3fmt6format28_$u7b$$u7b$closure$u7d$$u7d$17h552a12c73d5a1ac6E"(ptr sret(%"alloc::string::String") align 8 %_0, ptr align 8 %0) unnamed_addr #0 {
start:
  %_2 = alloca %"core::fmt::Arguments<'_>", align 8
  %_1 = alloca ptr, align 8
  store ptr %0, ptr %_1, align 8
  %_3 = load ptr, ptr %_1, align 8, !nonnull !4, !align !3, !noundef !4
  call void @llvm.memcpy.p0.p0.i64(ptr align 8 %_2, ptr align 8 %_3, i64 48, i1 false)
; call alloc::fmt::format::format_inner
  call void @_ZN5alloc3fmt6format12format_inner17h53c33d0fa1f81536E(ptr sret(%"alloc::string::String") align 8 %_0, ptr align 8 %_2)
  ret void
}

; alloc::str::<impl alloc::borrow::ToOwned for str>::to_owned
; Function Attrs: inlinehint nonlazybind uwtable
define internal void @"_ZN5alloc3str56_$LT$impl$u20$alloc..borrow..ToOwned$u20$for$u20$str$GT$8to_owned17h92fd2d85ae68b4eaE"(ptr sret(%"alloc::string::String") align 8 %_0, ptr align 1 %self.0, i64 %self.1) unnamed_addr #0 {
start:
  %bytes = alloca %"alloc::vec::Vec<u8>", align 8
; call <T as alloc::slice::hack::ConvertVec>::to_vec
  call void @"_ZN52_$LT$T$u20$as$u20$alloc..slice..hack..ConvertVec$GT$6to_vec17h77ddc8934d61b480E"(ptr sret(%"alloc::vec::Vec<u8>") align 8 %bytes, ptr align 1 %self.0, i64 %self.1)
  call void @llvm.memcpy.p0.p0.i64(ptr align 8 %_0, ptr align 8 %bytes, i64 24, i1 false)
  ret void
}

; alloc::alloc::Global::alloc_impl
; Function Attrs: inlinehint nonlazybind uwtable
define internal { ptr, i64 } @_ZN5alloc5alloc6Global10alloc_impl17h8052d19f722fa78eE(ptr align 1 %self, i64 %layout.0, i64 %layout.1, i1 zeroext %zeroed) unnamed_addr #0 {
start:
  %0 = alloca i8, align 1
  %_70 = alloca { ptr, i64 }, align 8
  %_69 = alloca %"core::ptr::metadata::PtrRepr<[u8]>", align 8
  %_56 = alloca ptr, align 8
  %_51 = alloca i64, align 8
  %_39 = alloca i64, align 8
  %_32 = alloca { ptr, i64 }, align 8
  %_31 = alloca %"core::ptr::metadata::PtrRepr<[u8]>", align 8
  %_20 = alloca i64, align 8
  %_16 = alloca { ptr, i64 }, align 8
  %self2 = alloca ptr, align 8
  %self1 = alloca ptr, align 8
  %_10 = alloca ptr, align 8
  %raw_ptr = alloca ptr, align 8
  %data = alloca ptr, align 8
  %_6 = alloca { ptr, i64 }, align 8
  %_0 = alloca { ptr, i64 }, align 8
  %1 = icmp eq i64 %layout.1, 0
  br i1 %1, label %bb2, label %bb1

bb2:                                              ; preds = %start
  store i64 %layout.0, ptr %_20, align 8
  %_21 = load i64, ptr %_20, align 8, !range !6, !noundef !4
  %_22 = icmp uge i64 %_21, 1
  %_23 = icmp ule i64 %_21, -9223372036854775808
  %_24 = and i1 %_22, %_23
  call void @llvm.assume(i1 %_24)
  %ptr = inttoptr i64 %_21 to ptr
  store ptr %ptr, ptr %data, align 8
  %_29 = load ptr, ptr %data, align 8, !noundef !4
  store ptr %_29, ptr %_32, align 8
  %2 = getelementptr inbounds { ptr, i64 }, ptr %_32, i32 0, i32 1
  store i64 0, ptr %2, align 8
  %3 = getelementptr inbounds { ptr, i64 }, ptr %_32, i32 0, i32 0
  %4 = load ptr, ptr %3, align 8, !noundef !4
  %5 = getelementptr inbounds { ptr, i64 }, ptr %_32, i32 0, i32 1
  %6 = load i64, ptr %5, align 8, !noundef !4
  %7 = getelementptr inbounds { ptr, i64 }, ptr %_31, i32 0, i32 0
  store ptr %4, ptr %7, align 8
  %8 = getelementptr inbounds { ptr, i64 }, ptr %_31, i32 0, i32 1
  store i64 %6, ptr %8, align 8
  %9 = getelementptr inbounds { ptr, i64 }, ptr %_31, i32 0, i32 0
  %ptr.0 = load ptr, ptr %9, align 8, !noundef !4
  %10 = getelementptr inbounds { ptr, i64 }, ptr %_31, i32 0, i32 1
  %ptr.1 = load i64, ptr %10, align 8, !noundef !4
  %11 = getelementptr inbounds { ptr, i64 }, ptr %_6, i32 0, i32 0
  store ptr %ptr.0, ptr %11, align 8
  %12 = getelementptr inbounds { ptr, i64 }, ptr %_6, i32 0, i32 1
  store i64 %ptr.1, ptr %12, align 8
  %13 = getelementptr inbounds { ptr, i64 }, ptr %_6, i32 0, i32 0
  %14 = load ptr, ptr %13, align 8, !nonnull !4, !noundef !4
  %15 = getelementptr inbounds { ptr, i64 }, ptr %_6, i32 0, i32 1
  %16 = load i64, ptr %15, align 8, !noundef !4
  %17 = getelementptr inbounds { ptr, i64 }, ptr %_0, i32 0, i32 0
  store ptr %14, ptr %17, align 8
  %18 = getelementptr inbounds { ptr, i64 }, ptr %_0, i32 0, i32 1
  store i64 %16, ptr %18, align 8
  br label %bb11

bb1:                                              ; preds = %start
  br i1 %zeroed, label %bb3, label %bb4

bb11:                                             ; preds = %bb10, %bb8, %bb2
  %19 = getelementptr inbounds { ptr, i64 }, ptr %_0, i32 0, i32 0
  %20 = load ptr, ptr %19, align 8, !noundef !4
  %21 = getelementptr inbounds { ptr, i64 }, ptr %_0, i32 0, i32 1
  %22 = load i64, ptr %21, align 8
  %23 = insertvalue { ptr, i64 } poison, ptr %20, 0
  %24 = insertvalue { ptr, i64 } %23, i64 %22, 1
  ret { ptr, i64 } %24

bb4:                                              ; preds = %bb1
  %25 = load volatile i8, ptr @__rust_no_alloc_shim_is_unstable, align 1
  store i8 %25, ptr %0, align 1
  %_44 = load i8, ptr %0, align 1, !noundef !4
  store i64 %layout.0, ptr %_51, align 8
  %_52 = load i64, ptr %_51, align 8, !range !6, !noundef !4
  %_53 = icmp uge i64 %_52, 1
  %_54 = icmp ule i64 %_52, -9223372036854775808
  %_55 = and i1 %_53, %_54
  call void @llvm.assume(i1 %_55)
  %26 = call ptr @__rust_alloc(i64 %layout.1, i64 %_52) #15
  store ptr %26, ptr %raw_ptr, align 8
  br label %bb5

bb3:                                              ; preds = %bb1
  store i64 %layout.0, ptr %_39, align 8
  %_40 = load i64, ptr %_39, align 8, !range !6, !noundef !4
  %_41 = icmp uge i64 %_40, 1
  %_42 = icmp ule i64 %_40, -9223372036854775808
  %_43 = and i1 %_41, %_42
  call void @llvm.assume(i1 %_43)
  %27 = call ptr @__rust_alloc_zeroed(i64 %layout.1, i64 %_40) #15
  store ptr %27, ptr %raw_ptr, align 8
  br label %bb5

bb5:                                              ; preds = %bb3, %bb4
  %ptr3 = load ptr, ptr %raw_ptr, align 8, !noundef !4
  %_57 = ptrtoint ptr %ptr3 to i64
  %28 = icmp eq i64 %_57, 0
  br i1 %28, label %bb15, label %bb16

bb15:                                             ; preds = %bb5
  store ptr null, ptr %self2, align 8
  br label %bb6

bb16:                                             ; preds = %bb5
  store ptr %ptr3, ptr %_56, align 8
  %29 = load ptr, ptr %_56, align 8, !nonnull !4, !noundef !4
  store ptr %29, ptr %self2, align 8
  br label %bb6

bb6:                                              ; preds = %bb16, %bb15
  %30 = load ptr, ptr %self2, align 8, !noundef !4
  %31 = ptrtoint ptr %30 to i64
  %32 = icmp eq i64 %31, 0
  %_61 = select i1 %32, i64 0, i64 1
  %33 = icmp eq i64 %_61, 0
  br i1 %33, label %bb17, label %bb18

bb17:                                             ; preds = %bb6
  store ptr null, ptr %self1, align 8
  br label %bb19

bb18:                                             ; preds = %bb6
  %v = load ptr, ptr %self2, align 8, !nonnull !4, !noundef !4
  store ptr %v, ptr %self1, align 8
  br label %bb19

bb19:                                             ; preds = %bb18, %bb17
  %34 = load ptr, ptr %self1, align 8, !noundef !4
  %35 = ptrtoint ptr %34 to i64
  %36 = icmp eq i64 %35, 0
  %_63 = select i1 %36, i64 1, i64 0
  %37 = icmp eq i64 %_63, 0
  br i1 %37, label %bb21, label %bb20

bb21:                                             ; preds = %bb19
  %v4 = load ptr, ptr %self1, align 8, !nonnull !4, !noundef !4
  store ptr %v4, ptr %_10, align 8
  br label %bb7

bb20:                                             ; preds = %bb19
  store ptr null, ptr %_10, align 8
  br label %bb7

bb7:                                              ; preds = %bb20, %bb21
  %38 = load ptr, ptr %_10, align 8, !noundef !4
  %39 = ptrtoint ptr %38 to i64
  %40 = icmp eq i64 %39, 0
  %_14 = select i1 %40, i64 1, i64 0
  %41 = icmp eq i64 %_14, 0
  br i1 %41, label %bb8, label %bb10

bb8:                                              ; preds = %bb7
  %ptr5 = load ptr, ptr %_10, align 8, !nonnull !4, !noundef !4
  store ptr %ptr5, ptr %_70, align 8
  %42 = getelementptr inbounds { ptr, i64 }, ptr %_70, i32 0, i32 1
  store i64 %layout.1, ptr %42, align 8
  %43 = getelementptr inbounds { ptr, i64 }, ptr %_70, i32 0, i32 0
  %44 = load ptr, ptr %43, align 8, !noundef !4
  %45 = getelementptr inbounds { ptr, i64 }, ptr %_70, i32 0, i32 1
  %46 = load i64, ptr %45, align 8, !noundef !4
  %47 = getelementptr inbounds { ptr, i64 }, ptr %_69, i32 0, i32 0
  store ptr %44, ptr %47, align 8
  %48 = getelementptr inbounds { ptr, i64 }, ptr %_69, i32 0, i32 1
  store i64 %46, ptr %48, align 8
  %49 = getelementptr inbounds { ptr, i64 }, ptr %_69, i32 0, i32 0
  %ptr.06 = load ptr, ptr %49, align 8, !noundef !4
  %50 = getelementptr inbounds { ptr, i64 }, ptr %_69, i32 0, i32 1
  %ptr.17 = load i64, ptr %50, align 8, !noundef !4
  %51 = getelementptr inbounds { ptr, i64 }, ptr %_16, i32 0, i32 0
  store ptr %ptr.06, ptr %51, align 8
  %52 = getelementptr inbounds { ptr, i64 }, ptr %_16, i32 0, i32 1
  store i64 %ptr.17, ptr %52, align 8
  %53 = getelementptr inbounds { ptr, i64 }, ptr %_16, i32 0, i32 0
  %54 = load ptr, ptr %53, align 8, !nonnull !4, !noundef !4
  %55 = getelementptr inbounds { ptr, i64 }, ptr %_16, i32 0, i32 1
  %56 = load i64, ptr %55, align 8, !noundef !4
  %57 = getelementptr inbounds { ptr, i64 }, ptr %_0, i32 0, i32 0
  store ptr %54, ptr %57, align 8
  %58 = getelementptr inbounds { ptr, i64 }, ptr %_0, i32 0, i32 1
  store i64 %56, ptr %58, align 8
  br label %bb11

bb10:                                             ; preds = %bb7
  store ptr null, ptr %_0, align 8
  br label %bb11

bb9:                                              ; No predecessors!
  unreachable
}

; alloc::raw_vec::RawVec<T,A>::allocate_in
; Function Attrs: nonlazybind uwtable
define { ptr, i64 } @"_ZN5alloc7raw_vec19RawVec$LT$T$C$A$GT$11allocate_in17h7be12a5e81c5da33E"(i64 %capacity, i1 zeroext %0) unnamed_addr #1 personality ptr @rust_eh_personality {
start:
  %1 = alloca { ptr, i32 }, align 8
  %_44 = alloca ptr, align 8
  %_29 = alloca ptr, align 8
  %_28 = alloca ptr, align 8
  %self = alloca ptr, align 8
  %_23 = alloca ptr, align 8
  %result = alloca { ptr, i64 }, align 8
  %_7 = alloca { i64, i64 }, align 8
  %_0 = alloca { ptr, i64 }, align 8
  %alloc = alloca %"alloc::alloc::Global", align 1
  %init = alloca i8, align 1
  %2 = zext i1 %0 to i8
  store i8 %2, ptr %init, align 1
  br i1 false, label %bb2, label %bb1

bb1:                                              ; preds = %start
  %3 = icmp eq i64 %capacity, 0
  br i1 %3, label %bb2, label %bb3

bb2:                                              ; preds = %bb1, %start
  store ptr inttoptr (i64 1 to ptr), ptr %_29, align 8
  %4 = load ptr, ptr %_29, align 8, !nonnull !4, !noundef !4
  store ptr %4, ptr %_28, align 8
  %5 = load ptr, ptr %_28, align 8, !nonnull !4, !noundef !4
  store ptr %5, ptr %_0, align 8
  %6 = getelementptr inbounds { ptr, i64 }, ptr %_0, i32 0, i32 1
  store i64 0, ptr %6, align 8
  br label %bb14

bb3:                                              ; preds = %bb1
; invoke core::alloc::layout::Layout::array::inner
  %7 = invoke { i64, i64 } @_ZN4core5alloc6layout6Layout5array5inner17h40804fcbee866092E(i64 1, i64 1, i64 %capacity)
          to label %bb18 unwind label %cleanup

bb17:                                             ; preds = %cleanup
  br i1 true, label %bb16, label %bb15

cleanup:                                          ; preds = %bb4, %bb12, %bb7, %bb8, %bb3
  %8 = landingpad { ptr, i32 }
          cleanup
  %9 = extractvalue { ptr, i32 } %8, 0
  %10 = extractvalue { ptr, i32 } %8, 1
  %11 = getelementptr inbounds { ptr, i32 }, ptr %1, i32 0, i32 0
  store ptr %9, ptr %11, align 8
  %12 = getelementptr inbounds { ptr, i32 }, ptr %1, i32 0, i32 1
  store i32 %10, ptr %12, align 8
  br label %bb17

bb18:                                             ; preds = %bb3
  store { i64, i64 } %7, ptr %_7, align 8
  %13 = load i64, ptr %_7, align 8, !range !7, !noundef !4
  %14 = icmp eq i64 %13, 0
  %_8 = select i1 %14, i64 1, i64 0
  %15 = icmp eq i64 %_8, 0
  br i1 %15, label %bb6, label %bb4

bb6:                                              ; preds = %bb18
  %16 = getelementptr inbounds { i64, i64 }, ptr %_7, i32 0, i32 0
  %layout.0 = load i64, ptr %16, align 8, !range !6, !noundef !4
  %17 = getelementptr inbounds { i64, i64 }, ptr %_7, i32 0, i32 1
  %layout.1 = load i64, ptr %17, align 8, !noundef !4
  %18 = load i8, ptr %init, align 1, !range !8, !noundef !4
  %19 = trunc i8 %18 to i1
  %_14 = zext i1 %19 to i64
  %20 = icmp eq i64 %_14, 0
  br i1 %20, label %bb8, label %bb7

bb4:                                              ; preds = %bb18
; invoke alloc::raw_vec::capacity_overflow
  invoke void @_ZN5alloc7raw_vec17capacity_overflow17h7596d82a86d51ab8E() #12
          to label %unreachable unwind label %cleanup

bb8:                                              ; preds = %bb6
; invoke <alloc::alloc::Global as core::alloc::Allocator>::allocate
  %21 = invoke { ptr, i64 } @"_ZN63_$LT$alloc..alloc..Global$u20$as$u20$core..alloc..Allocator$GT$8allocate17h139258e72afb1a5bE"(ptr align 1 %alloc, i64 %layout.0, i64 %layout.1)
          to label %bb9 unwind label %cleanup

bb7:                                              ; preds = %bb6
; invoke <alloc::alloc::Global as core::alloc::Allocator>::allocate_zeroed
  %22 = invoke { ptr, i64 } @"_ZN63_$LT$alloc..alloc..Global$u20$as$u20$core..alloc..Allocator$GT$15allocate_zeroed17h84356566ef586c27E"(ptr align 1 %alloc, i64 %layout.0, i64 %layout.1)
          to label %bb10 unwind label %cleanup

bb9:                                              ; preds = %bb8
  store { ptr, i64 } %21, ptr %result, align 8
  br label %bb11

bb11:                                             ; preds = %bb10, %bb9
  %23 = load ptr, ptr %result, align 8, !noundef !4
  %24 = ptrtoint ptr %23 to i64
  %25 = icmp eq i64 %24, 0
  %_19 = select i1 %25, i64 1, i64 0
  %26 = icmp eq i64 %_19, 0
  br i1 %26, label %bb13, label %bb12

bb10:                                             ; preds = %bb7
  store { ptr, i64 } %22, ptr %result, align 8
  br label %bb11

bb13:                                             ; preds = %bb11
  %27 = getelementptr inbounds { ptr, i64 }, ptr %result, i32 0, i32 0
  %ptr.0 = load ptr, ptr %27, align 8, !nonnull !4, !noundef !4
  %28 = getelementptr inbounds { ptr, i64 }, ptr %result, i32 0, i32 1
  %ptr.1 = load i64, ptr %28, align 8, !noundef !4
  store ptr %ptr.0, ptr %self, align 8
  %_43 = load ptr, ptr %self, align 8, !noundef !4
  store ptr %_43, ptr %_44, align 8
  %29 = load ptr, ptr %_44, align 8, !nonnull !4, !noundef !4
  store ptr %29, ptr %_23, align 8
  %30 = load ptr, ptr %_23, align 8, !nonnull !4, !noundef !4
  store ptr %30, ptr %_0, align 8
  %31 = getelementptr inbounds { ptr, i64 }, ptr %_0, i32 0, i32 1
  store i64 %capacity, ptr %31, align 8
  br label %bb14

bb12:                                             ; preds = %bb11
; invoke alloc::alloc::handle_alloc_error
  invoke void @_ZN5alloc5alloc18handle_alloc_error17h6c194ef306599f55E(i64 %layout.0, i64 %layout.1) #12
          to label %unreachable unwind label %cleanup

bb14:                                             ; preds = %bb2, %bb13
  %32 = getelementptr inbounds { ptr, i64 }, ptr %_0, i32 0, i32 0
  %33 = load ptr, ptr %32, align 8, !nonnull !4, !noundef !4
  %34 = getelementptr inbounds { ptr, i64 }, ptr %_0, i32 0, i32 1
  %35 = load i64, ptr %34, align 8, !noundef !4
  %36 = insertvalue { ptr, i64 } poison, ptr %33, 0
  %37 = insertvalue { ptr, i64 } %36, i64 %35, 1
  ret { ptr, i64 } %37

unreachable:                                      ; preds = %bb4, %bb12
  unreachable

bb5:                                              ; No predecessors!
  unreachable

bb15:                                             ; preds = %bb16, %bb17
  %38 = load ptr, ptr %1, align 8, !noundef !4
  %39 = getelementptr inbounds { ptr, i32 }, ptr %1, i32 0, i32 1
  %40 = load i32, ptr %39, align 8, !noundef !4
  %41 = insertvalue { ptr, i32 } poison, ptr %38, 0
  %42 = insertvalue { ptr, i32 } %41, i32 %40, 1
  resume { ptr, i32 } %42

bb16:                                             ; preds = %bb17
  br label %bb15
}

; alloc::raw_vec::RawVec<T,A>::current_memory
; Function Attrs: nonlazybind uwtable
define void @"_ZN5alloc7raw_vec19RawVec$LT$T$C$A$GT$14current_memory17h8c939ad75634861bE"(ptr sret(%"core::option::Option<(core::ptr::non_null::NonNull<u8>, core::alloc::layout::Layout)>") align 8 %_0, ptr align 8 %self) unnamed_addr #1 {
start:
  %self2 = alloca ptr, align 8
  %self1 = alloca ptr, align 8
  %_10 = alloca ptr, align 8
  %_9 = alloca { ptr, { i64, i64 } }, align 8
  %layout = alloca { i64, i64 }, align 8
  br i1 false, label %bb2, label %bb1

bb1:                                              ; preds = %start
  %0 = getelementptr inbounds { ptr, i64 }, ptr %self, i32 0, i32 1
  %_3 = load i64, ptr %0, align 8, !noundef !4
  %1 = icmp eq i64 %_3, 0
  br i1 %1, label %bb2, label %bb3

bb2:                                              ; preds = %bb1, %start
  %2 = getelementptr inbounds %"core::option::Option<(core::ptr::non_null::NonNull<u8>, core::alloc::layout::Layout)>", ptr %_0, i32 0, i32 1
  store i64 0, ptr %2, align 8
  br label %bb4

bb3:                                              ; preds = %bb1
  %3 = getelementptr inbounds { ptr, i64 }, ptr %self, i32 0, i32 1
  %rhs = load i64, ptr %3, align 8, !noundef !4
  %size = mul nuw i64 1, %rhs
  %4 = getelementptr inbounds { i64, i64 }, ptr %layout, i32 0, i32 1
  store i64 %size, ptr %4, align 8
  store i64 1, ptr %layout, align 8
  %self3 = load ptr, ptr %self, align 8, !nonnull !4, !noundef !4
  store ptr %self3, ptr %self1, align 8
  %_19 = load ptr, ptr %self1, align 8, !noundef !4
  store ptr %_19, ptr %self2, align 8
  %_24 = load ptr, ptr %self2, align 8, !noundef !4
  store ptr %_24, ptr %_10, align 8
  %5 = load ptr, ptr %_10, align 8, !nonnull !4, !noundef !4
  store ptr %5, ptr %_9, align 8
  %6 = getelementptr inbounds { i64, i64 }, ptr %layout, i32 0, i32 0
  %7 = load i64, ptr %6, align 8, !range !6, !noundef !4
  %8 = getelementptr inbounds { i64, i64 }, ptr %layout, i32 0, i32 1
  %9 = load i64, ptr %8, align 8, !noundef !4
  %10 = getelementptr inbounds { ptr, { i64, i64 } }, ptr %_9, i32 0, i32 1
  %11 = getelementptr inbounds { i64, i64 }, ptr %10, i32 0, i32 0
  store i64 %7, ptr %11, align 8
  %12 = getelementptr inbounds { i64, i64 }, ptr %10, i32 0, i32 1
  store i64 %9, ptr %12, align 8
  call void @llvm.memcpy.p0.p0.i64(ptr align 8 %_0, ptr align 8 %_9, i64 24, i1 false)
  br label %bb4

bb4:                                              ; preds = %bb2, %bb3
  ret void
}

; <alloc::alloc::Global as core::alloc::Allocator>::deallocate
; Function Attrs: inlinehint nonlazybind uwtable
define internal void @"_ZN63_$LT$alloc..alloc..Global$u20$as$u20$core..alloc..Allocator$GT$10deallocate17h3463652cd45e656fE"(ptr align 1 %self, ptr %ptr, i64 %layout.0, i64 %layout.1) unnamed_addr #0 {
start:
  %_11 = alloca i64, align 8
  %0 = icmp eq i64 %layout.1, 0
  br i1 %0, label %bb2, label %bb1

bb2:                                              ; preds = %start
  br label %bb3

bb1:                                              ; preds = %start
  store i64 %layout.0, ptr %_11, align 8
  %_12 = load i64, ptr %_11, align 8, !range !6, !noundef !4
  %_13 = icmp uge i64 %_12, 1
  %_14 = icmp ule i64 %_12, -9223372036854775808
  %_15 = and i1 %_13, %_14
  call void @llvm.assume(i1 %_15)
  call void @__rust_dealloc(ptr %ptr, i64 %layout.1, i64 %_12) #15
  br label %bb3

bb3:                                              ; preds = %bb1, %bb2
  ret void
}

; <alloc::alloc::Global as core::alloc::Allocator>::allocate_zeroed
; Function Attrs: inlinehint nonlazybind uwtable
define internal { ptr, i64 } @"_ZN63_$LT$alloc..alloc..Global$u20$as$u20$core..alloc..Allocator$GT$15allocate_zeroed17h84356566ef586c27E"(ptr align 1 %self, i64 %layout.0, i64 %layout.1) unnamed_addr #0 {
start:
; call alloc::alloc::Global::alloc_impl
  %0 = call { ptr, i64 } @_ZN5alloc5alloc6Global10alloc_impl17h8052d19f722fa78eE(ptr align 1 %self, i64 %layout.0, i64 %layout.1, i1 zeroext true)
  %_0.0 = extractvalue { ptr, i64 } %0, 0
  %_0.1 = extractvalue { ptr, i64 } %0, 1
  %1 = insertvalue { ptr, i64 } poison, ptr %_0.0, 0
  %2 = insertvalue { ptr, i64 } %1, i64 %_0.1, 1
  ret { ptr, i64 } %2
}

; <alloc::alloc::Global as core::alloc::Allocator>::allocate
; Function Attrs: inlinehint nonlazybind uwtable
define internal { ptr, i64 } @"_ZN63_$LT$alloc..alloc..Global$u20$as$u20$core..alloc..Allocator$GT$8allocate17h139258e72afb1a5bE"(ptr align 1 %self, i64 %layout.0, i64 %layout.1) unnamed_addr #0 {
start:
; call alloc::alloc::Global::alloc_impl
  %0 = call { ptr, i64 } @_ZN5alloc5alloc6Global10alloc_impl17h8052d19f722fa78eE(ptr align 1 %self, i64 %layout.0, i64 %layout.1, i1 zeroext false)
  %_0.0 = extractvalue { ptr, i64 } %0, 0
  %_0.1 = extractvalue { ptr, i64 } %0, 1
  %1 = insertvalue { ptr, i64 } poison, ptr %_0.0, 0
  %2 = insertvalue { ptr, i64 } %1, i64 %_0.1, 1
  ret { ptr, i64 } %2
}

; <alloc::vec::Vec<T,A> as core::ops::drop::Drop>::drop
; Function Attrs: nonlazybind uwtable
define void @"_ZN70_$LT$alloc..vec..Vec$LT$T$C$A$GT$$u20$as$u20$core..ops..drop..Drop$GT$4drop17hd696aece270f9d4cE"(ptr align 8 %self) unnamed_addr #1 {
start:
  %_10 = alloca { ptr, i64 }, align 8
  %_9 = alloca %"core::ptr::metadata::PtrRepr<[u8]>", align 8
  %self1 = load ptr, ptr %self, align 8, !nonnull !4, !noundef !4
  %0 = getelementptr inbounds %"alloc::vec::Vec<u8>", ptr %self, i32 0, i32 1
  %len = load i64, ptr %0, align 8, !noundef !4
  store ptr %self1, ptr %_10, align 8
  %1 = getelementptr inbounds { ptr, i64 }, ptr %_10, i32 0, i32 1
  store i64 %len, ptr %1, align 8
  %2 = getelementptr inbounds { ptr, i64 }, ptr %_10, i32 0, i32 0
  %3 = load ptr, ptr %2, align 8, !noundef !4
  %4 = getelementptr inbounds { ptr, i64 }, ptr %_10, i32 0, i32 1
  %5 = load i64, ptr %4, align 8, !noundef !4
  %6 = getelementptr inbounds { ptr, i64 }, ptr %_9, i32 0, i32 0
  store ptr %3, ptr %6, align 8
  %7 = getelementptr inbounds { ptr, i64 }, ptr %_9, i32 0, i32 1
  store i64 %5, ptr %7, align 8
  %8 = getelementptr inbounds { ptr, i64 }, ptr %_9, i32 0, i32 0
  %_2.0 = load ptr, ptr %8, align 8, !noundef !4
  %9 = getelementptr inbounds { ptr, i64 }, ptr %_9, i32 0, i32 1
  %_2.1 = load i64, ptr %9, align 8, !noundef !4
  ret void
}

; <alloc::raw_vec::RawVec<T,A> as core::ops::drop::Drop>::drop
; Function Attrs: nonlazybind uwtable
define void @"_ZN77_$LT$alloc..raw_vec..RawVec$LT$T$C$A$GT$$u20$as$u20$core..ops..drop..Drop$GT$4drop17h3450741bf8722242E"(ptr align 8 %self) unnamed_addr #1 {
start:
  %_2 = alloca %"core::option::Option<(core::ptr::non_null::NonNull<u8>, core::alloc::layout::Layout)>", align 8
; call alloc::raw_vec::RawVec<T,A>::current_memory
  call void @"_ZN5alloc7raw_vec19RawVec$LT$T$C$A$GT$14current_memory17h8c939ad75634861bE"(ptr sret(%"core::option::Option<(core::ptr::non_null::NonNull<u8>, core::alloc::layout::Layout)>") align 8 %_2, ptr align 8 %self)
  %0 = getelementptr inbounds %"core::option::Option<(core::ptr::non_null::NonNull<u8>, core::alloc::layout::Layout)>", ptr %_2, i32 0, i32 1
  %1 = load i64, ptr %0, align 8, !range !7, !noundef !4
  %2 = icmp eq i64 %1, 0
  %_4 = select i1 %2, i64 0, i64 1
  %3 = icmp eq i64 %_4, 1
  br i1 %3, label %bb2, label %bb4

bb2:                                              ; preds = %start
  %ptr = load ptr, ptr %_2, align 8, !nonnull !4, !noundef !4
  %4 = getelementptr inbounds { ptr, { i64, i64 } }, ptr %_2, i32 0, i32 1
  %5 = getelementptr inbounds { i64, i64 }, ptr %4, i32 0, i32 0
  %layout.0 = load i64, ptr %5, align 8, !range !6, !noundef !4
  %6 = getelementptr inbounds { i64, i64 }, ptr %4, i32 0, i32 1
  %layout.1 = load i64, ptr %6, align 8, !noundef !4
  %_7 = getelementptr i8, ptr %self, i64 16
; call <alloc::alloc::Global as core::alloc::Allocator>::deallocate
  call void @"_ZN63_$LT$alloc..alloc..Global$u20$as$u20$core..alloc..Allocator$GT$10deallocate17h3463652cd45e656fE"(ptr align 1 %_7, ptr %ptr, i64 %layout.0, i64 %layout.1)
  br label %bb4

bb4:                                              ; preds = %bb2, %start
  ret void
}

; probe1::probe
; Function Attrs: nonlazybind uwtable
define void @_ZN6probe15probe17hf9c420566a025535E() unnamed_addr #1 {
start:
  %_0.i = alloca { ptr, ptr }, align 8
  %_7 = alloca [1 x { ptr, ptr }], align 8
  %_3 = alloca %"core::fmt::Arguments<'_>", align 8
  %res = alloca %"alloc::string::String", align 8
  %_1 = alloca %"alloc::string::String", align 8
  store ptr @alloc_53973d2fe29b4adba8bb7390b5678745, ptr %_0.i, align 8
  %0 = getelementptr inbounds { ptr, ptr }, ptr %_0.i, i32 0, i32 1
  store ptr @"_ZN4core3fmt3num3imp55_$LT$impl$u20$core..fmt..LowerExp$u20$for$u20$isize$GT$3fmt17hebf4c827f905fba6E", ptr %0, align 8
  %1 = load ptr, ptr %_0.i, align 8, !nonnull !4, !align !5, !noundef !4
  %2 = getelementptr inbounds { ptr, ptr }, ptr %_0.i, i32 0, i32 1
  %3 = load ptr, ptr %2, align 8, !nonnull !4, !noundef !4
  %4 = insertvalue { ptr, ptr } poison, ptr %1, 0
  %5 = insertvalue { ptr, ptr } %4, ptr %3, 1
  %_8.0 = extractvalue { ptr, ptr } %5, 0
  %_8.1 = extractvalue { ptr, ptr } %5, 1
  %6 = getelementptr inbounds [1 x { ptr, ptr }], ptr %_7, i64 0, i64 0
  %7 = getelementptr inbounds { ptr, ptr }, ptr %6, i32 0, i32 0
  store ptr %_8.0, ptr %7, align 8
  %8 = getelementptr inbounds { ptr, ptr }, ptr %6, i32 0, i32 1
  store ptr %_8.1, ptr %8, align 8
; call core::fmt::Arguments::new_v1
  call void @_ZN4core3fmt9Arguments6new_v117hd76b95d684fe09c0E(ptr sret(%"core::fmt::Arguments<'_>") align 8 %_3, ptr align 8 @alloc_ffa3cdb3ae88e54a1cc225f31dd07672, i64 1, ptr align 8 %_7, i64 1)
; call alloc::fmt::format
  call void @_ZN5alloc3fmt6format17h8c88fd4503c997edE(ptr sret(%"alloc::string::String") align 8 %res, ptr align 8 %_3)
  call void @llvm.memcpy.p0.p0.i64(ptr align 8 %_1, ptr align 8 %res, i64 24, i1 false)
; call core::ptr::drop_in_place<alloc::string::String>
  call void @"_ZN4core3ptr42drop_in_place$LT$alloc..string..String$GT$17he9127a551b21c677E"(ptr align 8 %_1)
  ret void
}

; core::fmt::num::imp::<impl core::fmt::LowerExp for isize>::fmt
; Function Attrs: nonlazybind uwtable
declare zeroext i1 @"_ZN4core3fmt3num3imp55_$LT$impl$u20$core..fmt..LowerExp$u20$for$u20$isize$GT$3fmt17hebf4c827f905fba6E"(ptr align 8, ptr align 8) unnamed_addr #1

; core::panicking::panic_fmt
; Function Attrs: cold noinline noreturn nonlazybind uwtable
declare void @_ZN4core9panicking9panic_fmt17h979245e2fdb2fabdE(ptr align 8, ptr align 8) unnamed_addr #2

; Function Attrs: nonlazybind uwtable
declare i32 @rust_eh_personality(i32, i32, i64, ptr, ptr) unnamed_addr #1

; core::panicking::panic_in_cleanup
; Function Attrs: cold noinline noreturn nounwind nonlazybind uwtable
declare void @_ZN4core9panicking16panic_in_cleanup17haea3eecf6d735b6cE() unnamed_addr #3

; Function Attrs: nocallback nofree nosync nounwind willreturn memory(inaccessiblemem: readwrite)
declare void @llvm.assume(i1 noundef) #4

; Function Attrs: nocallback nofree nosync nounwind willreturn memory(none)
declare i1 @llvm.expect.i1(i1, i1) #5

; core::panicking::panic
; Function Attrs: cold noinline noreturn nonlazybind uwtable
declare void @_ZN4core9panicking5panic17hcad0f3a89a1b36aaE(ptr align 1, i64, ptr align 8) unnamed_addr #2

; Function Attrs: nocallback nofree nounwind willreturn memory(argmem: readwrite)
declare void @llvm.memcpy.p0.p0.i64(ptr noalias nocapture writeonly, ptr noalias nocapture readonly, i64, i1 immarg) #6

; alloc::fmt::format::format_inner
; Function Attrs: nonlazybind uwtable
declare void @_ZN5alloc3fmt6format12format_inner17h53c33d0fa1f81536E(ptr sret(%"alloc::string::String") align 8, ptr align 8) unnamed_addr #1

; Function Attrs: nounwind nonlazybind allockind("alloc,uninitialized,aligned") allocsize(0) uwtable
declare noalias ptr @__rust_alloc(i64, i64 allocalign) unnamed_addr #7

; Function Attrs: nounwind nonlazybind allockind("alloc,zeroed,aligned") allocsize(0) uwtable
declare noalias ptr @__rust_alloc_zeroed(i64, i64 allocalign) unnamed_addr #8

; alloc::alloc::handle_alloc_error
; Function Attrs: cold noreturn nonlazybind uwtable
declare void @_ZN5alloc5alloc18handle_alloc_error17h6c194ef306599f55E(i64, i64) unnamed_addr #9

; alloc::raw_vec::capacity_overflow
; Function Attrs: noreturn nonlazybind uwtable
declare void @_ZN5alloc7raw_vec17capacity_overflow17h7596d82a86d51ab8E() unnamed_addr #10

; Function Attrs: nounwind nonlazybind allockind("free") uwtable
declare void @__rust_dealloc(ptr allocptr, i64, i64) unnamed_addr #11

attributes #0 = { inlinehint nonlazybind uwtable "probe-stack"="inline-asm" "target-cpu"="x86-64" }
attributes #1 = { nonlazybind uwtable "probe-stack"="inline-asm" "target-cpu"="x86-64" }
attributes #2 = { cold noinline noreturn nonlazybind uwtable "probe-stack"="inline-asm" "target-cpu"="x86-64" }
attributes #3 = { cold noinline noreturn nounwind nonlazybind uwtable "probe-stack"="inline-asm" "target-cpu"="x86-64" }
attributes #4 = { nocallback nofree nosync nounwind willreturn memory(inaccessiblemem: readwrite) }
attributes #5 = { nocallback nofree nosync nounwind willreturn memory(none) }
attributes #6 = { nocallback nofree nounwind willreturn memory(argmem: readwrite) }
attributes #7 = { nounwind nonlazybind allockind("alloc,uninitialized,aligned") allocsize(0) uwtable "alloc-family"="__rust_alloc" "probe-stack"="inline-asm" "target-cpu"="x86-64" }
attributes #8 = { nounwind nonlazybind allockind("alloc,zeroed,aligned") allocsize(0) uwtable "alloc-family"="__rust_alloc" "probe-stack"="inline-asm" "target-cpu"="x86-64" }
attributes #9 = { cold noreturn nonlazybind uwtable "probe-stack"="inline-asm" "target-cpu"="x86-64" }
attributes #10 = { noreturn nonlazybind uwtable "probe-stack"="inline-asm" "target-cpu"="x86-64" }
attributes #11 = { nounwind nonlazybind allockind("free") uwtable "alloc-family"="__rust_alloc" "probe-stack"="inline-asm" "target-cpu"="x86-64" }
attributes #12 = { noreturn }
attributes #13 = { noinline }
attributes #14 = { noinline noreturn nounwind }
attributes #15 = { nounwind }

!llvm.module.flags = !{!0, !1}
!llvm.ident = !{!2}

!0 = !{i32 8, !"PIC Level", i32 2}
!1 = !{i32 2, !"RtLibUseGOT", i32 1}
!2 = !{!"rustc version 1.74.0 (79e9716c9 2023-11-13)"}
!3 = !{i64 8}
!4 = !{}
!5 = !{i64 1}
!6 = !{i64 1, i64 -9223372036854775807}
!7 = !{i64 0, i64 -9223372036854775807}
!8 = !{i8 0, i8 2}
